target datalayout = "e-m:e-p270:32:32-p271:32:32-p272:64:64-i64:64-i128:128-f80:128-n8:16:32:64-S128"
target triple = "x86_64-pc-linux-gnu"

%struct.edpar = type { i32, i8, i8, i32, i32, i32, %struct.gmx_edx, i8, %struct.gmx_edx, %struct.gmx_edx, %struct.gmx_edx, %"struct.(anonymous namespace)::t_edvecs", float, %"struct.(anonymous namespace)::t_edflood", ptr }
%struct.gmx_edx = type { i32, i32, ptr, ptr, i32, ptr, ptr, ptr, ptr, float, ptr }
%"struct.(anonymous namespace)::t_edvecs" = type { %"struct.(anonymous namespace)::t_eigvec", %"struct.(anonymous namespace)::t_eigvec", %"struct.(anonymous namespace)::t_eigvec", %"struct.(anonymous namespace)::t_eigvec", %"struct.(anonymous namespace)::t_eigvec", %"struct.(anonymous namespace)::t_eigvec" }
%"struct.(anonymous namespace)::t_eigvec" = type { i32, ptr, ptr, ptr, ptr, ptr, float, ptr }
%"struct.(anonymous namespace)::t_edflood" = type { float, i8, float, float, float, float, float, float, float, float, ptr, %"struct.(anonymous namespace)::t_eigvec", i8, ptr, ptr }

; Function Attrs: inlinehint mustprogress nounwind uwtable
define internal noundef float @_ZL5iprodPKfS0_(ptr noundef %0, ptr noundef %1) #7 {
  %3 = alloca ptr, align 8
  %4 = alloca ptr, align 8
  store ptr %0, ptr %3, align 8, !tbaa !67
  store ptr %1, ptr %4, align 8, !tbaa !67
  %5 = load ptr, ptr %3, align 8, !tbaa !67
  %6 = getelementptr inbounds float, ptr %5, i64 0
  %7 = load float, ptr %6, align 4, !tbaa !229
  %8 = load ptr, ptr %4, align 8, !tbaa !67
  %9 = getelementptr inbounds float, ptr %8, i64 0
  %10 = load float, ptr %9, align 4, !tbaa !229
  %11 = load ptr, ptr %3, align 8, !tbaa !67
  %12 = getelementptr inbounds float, ptr %11, i64 1
  %13 = load float, ptr %12, align 4, !tbaa !229
  %14 = load ptr, ptr %4, align 8, !tbaa !67
  %15 = getelementptr inbounds float, ptr %14, i64 1
  %16 = load float, ptr %15, align 4, !tbaa !229
  %17 = fmul float %13, %16
  %18 = call float @llvm.fmuladd.f32(float %7, float %10, float %17)
  %19 = load ptr, ptr %3, align 8, !tbaa !67
  %20 = getelementptr inbounds float, ptr %19, i64 2
  %21 = load float, ptr %20, align 4, !tbaa !229
  %22 = load ptr, ptr %4, align 8, !tbaa !67
  %23 = getelementptr inbounds float, ptr %22, i64 2
  %24 = load float, ptr %23, align 4, !tbaa !229
  %25 = call float @llvm.fmuladd.f32(float %21, float %24, float %18)
  ret float %25
}

; Function Attrs: inlinehint mustprogress nounwind uwtable
define internal void @_ZL8rvec_incPfPKf(ptr noundef %0, ptr noundef %1) #7 {
  %3 = alloca ptr, align 8
  %4 = alloca ptr, align 8
  %5 = alloca float, align 4
  %6 = alloca float, align 4
  %7 = alloca float, align 4
  store ptr %0, ptr %3, align 8, !tbaa !67
  store ptr %1, ptr %4, align 8, !tbaa !67
  call void @llvm.lifetime.start.p0(i64 4, ptr %5) #17
  call void @llvm.lifetime.start.p0(i64 4, ptr %6) #17
  call void @llvm.lifetime.start.p0(i64 4, ptr %7) #17
  %8 = load ptr, ptr %3, align 8, !tbaa !67
  %9 = getelementptr inbounds float, ptr %8, i64 0
  %10 = load float, ptr %9, align 4, !tbaa !229
  %11 = load ptr, ptr %4, align 8, !tbaa !67
  %12 = getelementptr inbounds float, ptr %11, i64 0
  %13 = load float, ptr %12, align 4, !tbaa !229
  %14 = fadd float %10, %13
  store float %14, ptr %5, align 4, !tbaa !229
  %15 = load ptr, ptr %3, align 8, !tbaa !67
  %16 = getelementptr inbounds float, ptr %15, i64 1
  %17 = load float, ptr %16, align 4, !tbaa !229
  %18 = load ptr, ptr %4, align 8, !tbaa !67
  %19 = getelementptr inbounds float, ptr %18, i64 1
  %20 = load float, ptr %19, align 4, !tbaa !229
  %21 = fadd float %17, %20
  store float %21, ptr %6, align 4, !tbaa !229
  %22 = load ptr, ptr %3, align 8, !tbaa !67
  %23 = getelementptr inbounds float, ptr %22, i64 2
  %24 = load float, ptr %23, align 4, !tbaa !229
  %25 = load ptr, ptr %4, align 8, !tbaa !67
  %26 = getelementptr inbounds float, ptr %25, i64 2
  %27 = load float, ptr %26, align 4, !tbaa !229
  %28 = fadd float %24, %27
  store float %28, ptr %7, align 4, !tbaa !229
  %29 = load float, ptr %5, align 4, !tbaa !229
  %30 = load ptr, ptr %3, align 8, !tbaa !67
  %31 = getelementptr inbounds float, ptr %30, i64 0
  store float %29, ptr %31, align 4, !tbaa !229
  %32 = load float, ptr %6, align 4, !tbaa !229
  %33 = load ptr, ptr %3, align 8, !tbaa !67
  %34 = getelementptr inbounds float, ptr %33, i64 1
  store float %32, ptr %34, align 4, !tbaa !229
  %35 = load float, ptr %7, align 4, !tbaa !229
  %36 = load ptr, ptr %3, align 8, !tbaa !67
  %37 = getelementptr inbounds float, ptr %36, i64 2
  store float %35, ptr %37, align 4, !tbaa !229
  call void @llvm.lifetime.end.p0(i64 4, ptr %7) #17
  call void @llvm.lifetime.end.p0(i64 4, ptr %6) #17
  call void @llvm.lifetime.end.p0(i64 4, ptr %5) #17
  ret void
}

; Function Attrs: inlinehint mustprogress nounwind uwtable
define linkonce_odr noundef float @_ZSt4sqrtf(float noundef %0) #7 comdat {
  %2 = alloca float, align 4
  store float %0, ptr %2, align 4, !tbaa !229
  %3 = load float, ptr %2, align 4, !tbaa !229
  %4 = call float @sqrtf(float noundef %3) #17, !tbaa !226
  ret float %4
}

; Function Attrs: mustprogress nounwind uwtable
define linkonce_odr noundef float @_ZN3gmx6squareIfEET_S1_(float noundef %0) #0 comdat {
  %2 = alloca float, align 4
  store float %0, ptr %2, align 4, !tbaa !229
  %3 = load float, ptr %2, align 4, !tbaa !229
  %4 = load float, ptr %2, align 4, !tbaa !229
  %5 = fmul float %3, %4
  ret float %5
}

; Function Attrs: mustprogress uwtable
define internal noundef float @_ZN12_GLOBAL__N_18projectxERK5edparPA3_fS4_(ptr noundef nonnull align 8 dereferenceable(888) %0, ptr noundef %1, ptr noundef %2) #4 {
  %4 = alloca ptr, align 8
  %5 = alloca ptr, align 8
  %6 = alloca ptr, align 8
  %7 = alloca i32, align 4
  %8 = alloca float, align 4
  store ptr %0, ptr %4, align 8, !tbaa !22
  store ptr %1, ptr %5, align 8, !tbaa !67
  store ptr %2, ptr %6, align 8, !tbaa !67
  call void @llvm.lifetime.start.p0(i64 4, ptr %7) #17
  call void @llvm.lifetime.start.p0(i64 4, ptr %8) #17
  store float 0.000000e+00, ptr %8, align 4, !tbaa !229
  store i32 0, ptr %7, align 4, !tbaa !226
  br label %9

9:                                                ; preds = %38, %3
  %10 = load i32, ptr %7, align 4, !tbaa !226
  %11 = load ptr, ptr %4, align 8, !tbaa !22
  %12 = getelementptr inbounds nuw %struct.edpar, ptr %11, i32 0, i32 8
  %13 = getelementptr inbounds nuw %struct.gmx_edx, ptr %12, i32 0, i32 0
  %14 = load i32, ptr %13, align 8, !tbaa !208
  %15 = icmp slt i32 %10, %14
  br i1 %15, label %16, label %41

16:                                               ; preds = %9
  %17 = load ptr, ptr %4, align 8, !tbaa !22
  %18 = getelementptr inbounds nuw %struct.edpar, ptr %17, i32 0, i32 8
  %19 = getelementptr inbounds nuw %struct.gmx_edx, ptr %18, i32 0, i32 10
  %20 = load ptr, ptr %19, align 8, !tbaa !320
  %21 = load i32, ptr %7, align 4, !tbaa !226
  %22 = sext i32 %21 to i64
  %23 = getelementptr inbounds float, ptr %20, i64 %22
  %24 = load float, ptr %23, align 4, !tbaa !229
  %25 = load ptr, ptr %6, align 8, !tbaa !67
  %26 = load i32, ptr %7, align 4, !tbaa !226
  %27 = sext i32 %26 to i64
  %28 = getelementptr inbounds [3 x float], ptr %25, i64 %27
  %29 = getelementptr inbounds [3 x float], ptr %28, i64 0, i64 0
  %30 = load ptr, ptr %5, align 8, !tbaa !67
  %31 = load i32, ptr %7, align 4, !tbaa !226
  %32 = sext i32 %31 to i64
  %33 = getelementptr inbounds [3 x float], ptr %30, i64 %32
  %34 = getelementptr inbounds [3 x float], ptr %33, i64 0, i64 0
  %35 = call noundef float @_ZL5iprodPKfS0_(ptr noundef %29, ptr noundef %34)
  %36 = load float, ptr %8, align 4, !tbaa !229
  %37 = call float @llvm.fmuladd.f32(float %24, float %35, float %36)
  store float %37, ptr %8, align 4, !tbaa !229
  br label %38

38:                                               ; preds = %16
  %39 = load i32, ptr %7, align 4, !tbaa !226
  %40 = add nsw i32 %39, 1
  store i32 %40, ptr %7, align 4, !tbaa !226
  br label %9, !llvm.loop !321

41:                                               ; preds = %9
  %42 = load float, ptr %8, align 4, !tbaa !229
  call void @llvm.lifetime.end.p0(i64 4, ptr %8) #17
  call void @llvm.lifetime.end.p0(i64 4, ptr %7) #17
  ret float %42
}

; Function Attrs: inlinehint mustprogress nounwind uwtable
define internal void @_ZL8rvec_decPfPKf(ptr noundef %0, ptr noundef %1) #7 {
  %3 = alloca ptr, align 8
  %4 = alloca ptr, align 8
  %5 = alloca float, align 4
  %6 = alloca float, align 4
  %7 = alloca float, align 4
  store ptr %0, ptr %3, align 8, !tbaa !67
  store ptr %1, ptr %4, align 8, !tbaa !67
  call void @llvm.lifetime.start.p0(i64 4, ptr %5) #17
  call void @llvm.lifetime.start.p0(i64 4, ptr %6) #17
  call void @llvm.lifetime.start.p0(i64 4, ptr %7) #17
  %8 = load ptr, ptr %3, align 8, !tbaa !67
  %9 = getelementptr inbounds float, ptr %8, i64 0
  %10 = load float, ptr %9, align 4, !tbaa !229
  %11 = load ptr, ptr %4, align 8, !tbaa !67
  %12 = getelementptr inbounds float, ptr %11, i64 0
  %13 = load float, ptr %12, align 4, !tbaa !229
  %14 = fsub float %10, %13
  store float %14, ptr %5, align 4, !tbaa !229
  %15 = load ptr, ptr %3, align 8, !tbaa !67
  %16 = getelementptr inbounds float, ptr %15, i64 1
  %17 = load float, ptr %16, align 4, !tbaa !229
  %18 = load ptr, ptr %4, align 8, !tbaa !67
  %19 = getelementptr inbounds float, ptr %18, i64 1
  %20 = load float, ptr %19, align 4, !tbaa !229
  %21 = fsub float %17, %20
  store float %21, ptr %6, align 4, !tbaa !229
  %22 = load ptr, ptr %3, align 8, !tbaa !67
  %23 = getelementptr inbounds float, ptr %22, i64 2
  %24 = load float, ptr %23, align 4, !tbaa !229
  %25 = load ptr, ptr %4, align 8, !tbaa !67
  %26 = getelementptr inbounds float, ptr %25, i64 2
  %27 = load float, ptr %26, align 4, !tbaa !229
  %28 = fsub float %24, %27
  store float %28, ptr %7, align 4, !tbaa !229
  %29 = load float, ptr %5, align 4, !tbaa !229
  %30 = load ptr, ptr %3, align 8, !tbaa !67
  %31 = getelementptr inbounds float, ptr %30, i64 0
  store float %29, ptr %31, align 4, !tbaa !229
  %32 = load float, ptr %6, align 4, !tbaa !229
  %33 = load ptr, ptr %3, align 8, !tbaa !67
  %34 = getelementptr inbounds float, ptr %33, i64 1
  store float %32, ptr %34, align 4, !tbaa !229
  %35 = load float, ptr %7, align 4, !tbaa !229
  %36 = load ptr, ptr %3, align 8, !tbaa !67
  %37 = getelementptr inbounds float, ptr %36, i64 2
  store float %35, ptr %37, align 4, !tbaa !229
  call void @llvm.lifetime.end.p0(i64 4, ptr %7) #17
  call void @llvm.lifetime.end.p0(i64 4, ptr %6) #17
  call void @llvm.lifetime.end.p0(i64 4, ptr %5) #17
  ret void
}

; Function Attrs: mustprogress uwtable
define internal void @_ZN12_GLOBAL__N_111rad_projectERK5edparPA3_fPNS_8t_eigvecE(ptr noundef nonnull align 8 dereferenceable(888) %0, ptr noundef %1, ptr noundef %2) #4 {
  %4 = alloca ptr, align 8
  %5 = alloca ptr, align 8
  %6 = alloca ptr, align 8
  %7 = alloca i32, align 4
  %8 = alloca float, align 4
  store ptr %0, ptr %4, align 8, !tbaa !22
  store ptr %1, ptr %5, align 8, !tbaa !67
  store ptr %2, ptr %6, align 8, !tbaa !244
  call void @llvm.lifetime.start.p0(i64 4, ptr %7) #17
  call void @llvm.lifetime.start.p0(i64 4, ptr %8) #17
  store float 0.000000e+00, ptr %8, align 4, !tbaa !229
  store i32 0, ptr %7, align 4, !tbaa !226
  br label %9

9:                                                ; preds = %30, %3
  %10 = load i32, ptr %7, align 4, !tbaa !226
  %11 = load ptr, ptr %4, align 8, !tbaa !22
  %12 = getelementptr inbounds nuw %struct.edpar, ptr %11, i32 0, i32 8
  %13 = getelementptr inbounds nuw %struct.gmx_edx, ptr %12, i32 0, i32 0
  %14 = load i32, ptr %13, align 8, !tbaa !208
  %15 = icmp slt i32 %10, %14
  br i1 %15, label %16, label %33

16:                                               ; preds = %9
  %17 = load ptr, ptr %5, align 8, !tbaa !67
  %18 = load i32, ptr %7, align 4, !tbaa !226
  %19 = sext i32 %18 to i64
  %20 = getelementptr inbounds [3 x float], ptr %17, i64 %19
  %21 = getelementptr inbounds [3 x float], ptr %20, i64 0, i64 0
  %22 = load ptr, ptr %4, align 8, !tbaa !22
  %23 = getelementptr inbounds nuw %struct.edpar, ptr %22, i32 0, i32 8
  %24 = getelementptr inbounds nuw %struct.gmx_edx, ptr %23, i32 0, i32 6
  %25 = load ptr, ptr %24, align 8, !tbaa !247
  %26 = load i32, ptr %7, align 4, !tbaa !226
  %27 = sext i32 %26 to i64
  %28 = getelementptr inbounds [3 x float], ptr %25, i64 %27
  %29 = getelementptr inbounds [3 x float], ptr %28, i64 0, i64 0
  call void @_ZL8rvec_decPfPKf(ptr noundef %21, ptr noundef %29)
  br label %30

30:                                               ; preds = %16
  %31 = load i32, ptr %7, align 4, !tbaa !226
  %32 = add nsw i32 %31, 1
  store i32 %32, ptr %7, align 4, !tbaa !226
  br label %9, !llvm.loop !484

33:                                               ; preds = %9
  store i32 0, ptr %7, align 4, !tbaa !226
  br label %34

34:                                               ; preds = %75, %33
  %35 = load i32, ptr %7, align 4, !tbaa !226
  %36 = load ptr, ptr %6, align 8, !tbaa !244
  %37 = getelementptr inbounds nuw %"struct.(anonymous namespace)::t_eigvec", ptr %36, i32 0, i32 0
  %38 = load i32, ptr %37, align 8, !tbaa !246
  %39 = icmp slt i32 %35, %38
  br i1 %39, label %40, label %78

40:                                               ; preds = %34
  %41 = load ptr, ptr %4, align 8, !tbaa !22
  %42 = load ptr, ptr %5, align 8, !tbaa !67
  %43 = load ptr, ptr %6, align 8, !tbaa !244
  %44 = getelementptr inbounds nuw %"struct.(anonymous namespace)::t_eigvec", ptr %43, i32 0, i32 3
  %45 = load ptr, ptr %44, align 8, !tbaa !249
  %46 = load i32, ptr %7, align 4, !tbaa !226
  %47 = sext i32 %46 to i64
  %48 = getelementptr inbounds ptr, ptr %45, i64 %47
  %49 = load ptr, ptr %48, align 8, !tbaa !67
  %50 = call noundef float @_ZN12_GLOBAL__N_18projectxERK5edparPA3_fS4_(ptr noundef nonnull align 8 dereferenceable(888) %41, ptr noundef %42, ptr noundef %49)
  %51 = load ptr, ptr %6, align 8, !tbaa !244
  %52 = getelementptr inbounds nuw %"struct.(anonymous namespace)::t_eigvec", ptr %51, i32 0, i32 7
  %53 = load ptr, ptr %52, align 8, !tbaa !485
  %54 = load i32, ptr %7, align 4, !tbaa !226
  %55 = sext i32 %54 to i64
  %56 = getelementptr inbounds float, ptr %53, i64 %55
  store float %50, ptr %56, align 4, !tbaa !229
  %57 = load ptr, ptr %6, align 8, !tbaa !244
  %58 = getelementptr inbounds nuw %"struct.(anonymous namespace)::t_eigvec", ptr %57, i32 0, i32 7
  %59 = load ptr, ptr %58, align 8, !tbaa !485
  %60 = load i32, ptr %7, align 4, !tbaa !226
  %61 = sext i32 %60 to i64
  %62 = getelementptr inbounds float, ptr %59, i64 %61
  %63 = load float, ptr %62, align 4, !tbaa !229
  %64 = load ptr, ptr %6, align 8, !tbaa !244
  %65 = getelementptr inbounds nuw %"struct.(anonymous namespace)::t_eigvec", ptr %64, i32 0, i32 4
  %66 = load ptr, ptr %65, align 8, !tbaa !250
  %67 = load i32, ptr %7, align 4, !tbaa !226
  %68 = sext i32 %67 to i64
  %69 = getelementptr inbounds float, ptr %66, i64 %68
  %70 = load float, ptr %69, align 4, !tbaa !229
  %71 = fsub float %63, %70
  %72 = call noundef float @_ZN3gmx6squareIfEET_S1_(float noundef %71)
  %73 = load float, ptr %8, align 4, !tbaa !229
  %74 = fadd float %73, %72
  store float %74, ptr %8, align 4, !tbaa !229
  br label %75

75:                                               ; preds = %40
  %76 = load i32, ptr %7, align 4, !tbaa !226
  %77 = add nsw i32 %76, 1
  store i32 %77, ptr %7, align 4, !tbaa !226
  br label %34, !llvm.loop !486

78:                                               ; preds = %34
  %79 = load float, ptr %8, align 4, !tbaa !229
  %80 = call noundef float @_ZSt4sqrtf(float noundef %79)
  %81 = load ptr, ptr %6, align 8, !tbaa !244
  %82 = getelementptr inbounds nuw %"struct.(anonymous namespace)::t_eigvec", ptr %81, i32 0, i32 6
  store float %80, ptr %82, align 8, !tbaa !487
  store i32 0, ptr %7, align 4, !tbaa !226
  br label %83

83:                                               ; preds = %104, %78
  %84 = load i32, ptr %7, align 4, !tbaa !226
  %85 = load ptr, ptr %4, align 8, !tbaa !22
  %86 = getelementptr inbounds nuw %struct.edpar, ptr %85, i32 0, i32 8
  %87 = getelementptr inbounds nuw %struct.gmx_edx, ptr %86, i32 0, i32 0
  %88 = load i32, ptr %87, align 8, !tbaa !208
  %89 = icmp slt i32 %84, %88
  br i1 %89, label %90, label %107

90:                                               ; preds = %83
  %91 = load ptr, ptr %5, align 8, !tbaa !67
  %92 = load i32, ptr %7, align 4, !tbaa !226
  %93 = sext i32 %92 to i64
  %94 = getelementptr inbounds [3 x float], ptr %91, i64 %93
  %95 = getelementptr inbounds [3 x float], ptr %94, i64 0, i64 0
  %96 = load ptr, ptr %4, align 8, !tbaa !22
  %97 = getelementptr inbounds nuw %struct.edpar, ptr %96, i32 0, i32 8
  %98 = getelementptr inbounds nuw %struct.gmx_edx, ptr %97, i32 0, i32 6
  %99 = load ptr, ptr %98, align 8, !tbaa !247
  %100 = load i32, ptr %7, align 4, !tbaa !226
  %101 = sext i32 %100 to i64
  %102 = getelementptr inbounds [3 x float], ptr %99, i64 %101
  %103 = getelementptr inbounds [3 x float], ptr %102, i64 0, i64 0
  call void @_ZL8rvec_incPfPKf(ptr noundef %95, ptr noundef %103)
  br label %104

104:                                              ; preds = %90
  %105 = load i32, ptr %7, align 4, !tbaa !226
  %106 = add nsw i32 %105, 1
  store i32 %106, ptr %7, align 4, !tbaa !226
  br label %83, !llvm.loop !488

107:                                              ; preds = %83
  call void @llvm.lifetime.end.p0(i64 4, ptr %8) #17
  call void @llvm.lifetime.end.p0(i64 4, ptr %7) #17
  ret void
}