; Function Attrs: mustprogress nofree nounwind memory(readwrite, inaccessiblemem: write) uwtable
define internal fastcc void @_ZN12_GLOBAL__N_111rad_projectERK5edparPA3_fPNS_8t_eigvecE(ptr noundef nonnull readonly align 8 captures(none) dereferenceable(888) %0, ptr noundef captures(none) %1, ptr noundef captures(none) %2) unnamed_addr #16 {
  %4 = getelementptr inbounds nuw i8, ptr %0, i64 112
  %5 = load i32, ptr %4, align 8, !tbaa !155
  %6 = icmp sgt i32 %5, 0
  br i1 %6, label %.lr.ph, label %.preheader

.lr.ph:                                           ; preds = %3
  %7 = getelementptr inbounds nuw i8, ptr %0, i64 152
  %8 = load ptr, ptr %7, align 8, !tbaa !238
  %wide.trip.count = zext nneg i32 %5 to i64
  br label %18

.preheader:                                       ; preds = %18, %3
  %9 = load i32, ptr %2, align 8, !tbaa !237
  %10 = icmp sgt i32 %9, 0
  br i1 %10, label %.lr.ph35, label %._crit_edge

.lr.ph35:                                         ; preds = %.preheader
  %11 = getelementptr inbounds nuw i8, ptr %2, i64 24
  %12 = load ptr, ptr %11, align 8, !tbaa !239
  %13 = getelementptr inbounds nuw i8, ptr %0, i64 184
  %14 = getelementptr inbounds nuw i8, ptr %2, i64 56
  %15 = load ptr, ptr %14, align 8, !tbaa !456
  %16 = getelementptr inbounds nuw i8, ptr %2, i64 32
  %17 = load ptr, ptr %16, align 8, !tbaa !240
  %wide.trip.count45 = zext nneg i32 %9 to i64
  br label %34

18:                                               ; preds = %.lr.ph, %18
  %indvars.iv = phi i64 [ 0, %.lr.ph ], [ %indvars.iv.next, %18 ]
  %19 = getelementptr inbounds nuw [3 x float], ptr %1, i64 %indvars.iv
  %20 = getelementptr inbounds nuw [3 x float], ptr %8, i64 %indvars.iv
  %21 = load float, ptr %19, align 4, !tbaa !178
  %22 = load float, ptr %20, align 4, !tbaa !178
  %23 = fsub float %21, %22
  %24 = getelementptr inbounds nuw i8, ptr %19, i64 4
  %25 = load float, ptr %24, align 4, !tbaa !178
  %26 = getelementptr inbounds nuw i8, ptr %20, i64 4
  %27 = load float, ptr %26, align 4, !tbaa !178
  %28 = fsub float %25, %27
  %29 = getelementptr inbounds nuw i8, ptr %19, i64 8
  %30 = load float, ptr %29, align 4, !tbaa !178
  %31 = getelementptr inbounds nuw i8, ptr %20, i64 8
  %32 = load float, ptr %31, align 4, !tbaa !178
  %33 = fsub float %30, %32
  store float %23, ptr %19, align 4, !tbaa !178
  store float %28, ptr %24, align 4, !tbaa !178
  store float %33, ptr %29, align 4, !tbaa !178
  %indvars.iv.next = add nuw nsw i64 %indvars.iv, 1
  %exitcond.not = icmp eq i64 %indvars.iv.next, %wide.trip.count
  br i1 %exitcond.not, label %.preheader, label %18, !llvm.loop !457

34:                                               ; preds = %.lr.ph35, %_ZN12_GLOBAL__N_18projectxERK5edparPA3_fS4_.exit
  %indvars.iv42 = phi i64 [ 0, %.lr.ph35 ], [ %indvars.iv.next43, %_ZN12_GLOBAL__N_18projectxERK5edparPA3_fS4_.exit ]
  %.034 = phi float [ 0.000000e+00, %.lr.ph35 ], [ %61, %_ZN12_GLOBAL__N_18projectxERK5edparPA3_fS4_.exit ]
  %35 = getelementptr inbounds nuw ptr, ptr %12, i64 %indvars.iv42
  %36 = load ptr, ptr %35, align 8, !tbaa !172
  %.val = load i32, ptr %4, align 8
  %.val30 = load ptr, ptr %13, align 8
  %37 = icmp sgt i32 %.val, 0
  br i1 %37, label %.lr.ph.preheader.i, label %_ZN12_GLOBAL__N_18projectxERK5edparPA3_fS4_.exit

.lr.ph.preheader.i:                               ; preds = %34
  %wide.trip.count.i = zext nneg i32 %.val to i64
  br label %.lr.ph.i

.lr.ph.i:                                         ; preds = %.lr.ph.i, %.lr.ph.preheader.i
  %indvars.iv.i = phi i64 [ 0, %.lr.ph.preheader.i ], [ %indvars.iv.next.i, %.lr.ph.i ]
  %.02.i = phi float [ 0.000000e+00, %.lr.ph.preheader.i ], [ %55, %.lr.ph.i ]
  %38 = getelementptr inbounds nuw float, ptr %.val30, i64 %indvars.iv.i
  %39 = load float, ptr %38, align 4, !tbaa !178
  %40 = getelementptr inbounds nuw [3 x float], ptr %36, i64 %indvars.iv.i
  %41 = getelementptr inbounds nuw [3 x float], ptr %1, i64 %indvars.iv.i
  %42 = load float, ptr %40, align 4, !tbaa !178
  %43 = load float, ptr %41, align 4, !tbaa !178
  %44 = getelementptr inbounds nuw i8, ptr %40, i64 4
  %45 = load float, ptr %44, align 4, !tbaa !178
  %46 = getelementptr inbounds nuw i8, ptr %41, i64 4
  %47 = load float, ptr %46, align 4, !tbaa !178
  %48 = fmul float %45, %47
  %49 = tail call float @llvm.fmuladd.f32(float %42, float %43, float %48)
  %50 = getelementptr inbounds nuw i8, ptr %40, i64 8
  %51 = load float, ptr %50, align 4, !tbaa !178
  %52 = getelementptr inbounds nuw i8, ptr %41, i64 8
  %53 = load float, ptr %52, align 4, !tbaa !178
  %54 = tail call noundef float @llvm.fmuladd.f32(float %51, float %53, float %49)
  %55 = tail call float @llvm.fmuladd.f32(float %39, float %54, float %.02.i)
  %indvars.iv.next.i = add nuw nsw i64 %indvars.iv.i, 1
  %exitcond.not.i = icmp eq i64 %indvars.iv.next.i, %wide.trip.count.i
  br i1 %exitcond.not.i, label %_ZN12_GLOBAL__N_18projectxERK5edparPA3_fS4_.exit, label %.lr.ph.i, !llvm.loop !242

_ZN12_GLOBAL__N_18projectxERK5edparPA3_fS4_.exit: ; preds = %.lr.ph.i, %34
  %.0.lcssa.i = phi float [ 0.000000e+00, %34 ], [ %55, %.lr.ph.i ]
  %56 = getelementptr inbounds nuw float, ptr %15, i64 %indvars.iv42
  store float %.0.lcssa.i, ptr %56, align 4, !tbaa !178
  %57 = getelementptr inbounds nuw float, ptr %17, i64 %indvars.iv42
  %58 = load float, ptr %57, align 4, !tbaa !178
  %59 = fsub float %.0.lcssa.i, %58
  %60 = fmul float %59, %59
  %61 = fadd float %.034, %60
  %indvars.iv.next43 = add nuw nsw i64 %indvars.iv42, 1
  %exitcond46.not = icmp eq i64 %indvars.iv.next43, %wide.trip.count45
  br i1 %exitcond46.not, label %._crit_edge, label %34, !llvm.loop !458

._crit_edge:                                      ; preds = %_ZN12_GLOBAL__N_18projectxERK5edparPA3_fS4_.exit, %.preheader
  %.0.lcssa = phi float [ 0.000000e+00, %.preheader ], [ %61, %_ZN12_GLOBAL__N_18projectxERK5edparPA3_fS4_.exit ]
  %62 = tail call noundef float @sqrtf(float noundef %.0.lcssa) #25, !tbaa !187
  %63 = getelementptr inbounds nuw i8, ptr %2, i64 48
  store float %62, ptr %63, align 8, !tbaa !459
  %64 = load i32, ptr %4, align 8, !tbaa !155
  %65 = icmp sgt i32 %64, 0
  br i1 %65, label %.lr.ph38, label %._crit_edge39

.lr.ph38:                                         ; preds = %._crit_edge
  %66 = getelementptr inbounds nuw i8, ptr %0, i64 152
  %67 = load ptr, ptr %66, align 8, !tbaa !238
  %wide.trip.count50 = zext nneg i32 %64 to i64
  br label %68

68:                                               ; preds = %.lr.ph38, %68
  %indvars.iv47 = phi i64 [ 0, %.lr.ph38 ], [ %indvars.iv.next48, %68 ]
  %69 = getelementptr inbounds nuw [3 x float], ptr %1, i64 %indvars.iv47
  %70 = getelementptr inbounds nuw [3 x float], ptr %67, i64 %indvars.iv47
  %71 = load float, ptr %69, align 4, !tbaa !178
  %72 = load float, ptr %70, align 4, !tbaa !178
  %73 = fadd float %71, %72
  %74 = getelementptr inbounds nuw i8, ptr %69, i64 4
  %75 = load float, ptr %74, align 4, !tbaa !178
  %76 = getelementptr inbounds nuw i8, ptr %70, i64 4
  %77 = load float, ptr %76, align 4, !tbaa !178
  %78 = fadd float %75, %77
  %79 = getelementptr inbounds nuw i8, ptr %69, i64 8
  %80 = load float, ptr %79, align 4, !tbaa !178
  %81 = getelementptr inbounds nuw i8, ptr %70, i64 8
  %82 = load float, ptr %81, align 4, !tbaa !178
  %83 = fadd float %80, %82
  store float %73, ptr %69, align 4, !tbaa !178
  store float %78, ptr %74, align 4, !tbaa !178
  store float %83, ptr %79, align 4, !tbaa !178
  %indvars.iv.next48 = add nuw nsw i64 %indvars.iv47, 1
  %exitcond51.not = icmp eq i64 %indvars.iv.next48, %wide.trip.count50
  br i1 %exitcond51.not, label %._crit_edge39, label %68, !llvm.loop !460

._crit_edge39:                                    ; preds = %68, %._crit_edge
  ret void
}